target datalayout = "e-m:e-p270:32:32-p271:32:32-p272:64:64-i64:64-i128:128-f80:128-n8:16:32:64-S128"
target triple = "x86_64-pc-linux-gnu"

%class.KlassInfoEntry = type { ptr, ptr, i64, i64, i64, i8, ptr }
%class.KlassInfoHisto = type { ptr, ptr }
%class.GrowableArrayView = type { %class.GrowableArrayBase, ptr }
%class.GrowableArrayBase = type { i32, i32 }

@.str.16 = private unnamed_addr constant [6 x i8] c"%4d: \00", align 1
@.str.17 = private unnamed_addr constant [19 x i8] c"Total %13ld  %13lu\00", align 1
@.str.24 = private unnamed_addr constant [56 x i8] c" num     #instances         #bytes  class name (module)\00", align 1
@.str.25 = private unnamed_addr constant [56 x i8] c"-------------------------------------------------------\00", align 1

; Function Attrs: mustprogress nounwind uwtable
define linkonce_odr hidden noundef i64 @_ZNK14KlassInfoEntry5wordsEv(ptr noundef nonnull align 8 dereferenceable(56) %0) #1 comdat align 2 {
  %2 = alloca ptr, align 8
  store ptr %0, ptr %2, align 8
  %3 = load ptr, ptr %2, align 8
  %4 = getelementptr inbounds %class.KlassInfoEntry, ptr %3, i32 0, i32 3
  %5 = load i64, ptr %4, align 8
  ret i64 %5
}

; Function Attrs: mustprogress nounwind uwtable
define linkonce_odr hidden noundef i64 @_ZNK14KlassInfoEntry5countEv(ptr noundef nonnull align 8 dereferenceable(56) %0) #1 comdat align 2 {
  %2 = alloca ptr, align 8
  store ptr %0, ptr %2, align 8
  %3 = load ptr, ptr %2, align 8
  %4 = getelementptr inbounds %class.KlassInfoEntry, ptr %3, i32 0, i32 2
  %5 = load i64, ptr %4, align 8
  ret i64 %5
}

; Function Attrs: mustprogress nounwind uwtable
define linkonce_odr hidden noundef nonnull align 8 dereferenceable(8) ptr @_ZN17GrowableArrayViewIP14KlassInfoEntryE2atEi(ptr noundef nonnull align 8 dereferenceable(16) %0, i32 noundef %1) #1 comdat align 2 {
  %3 = alloca ptr, align 8
  %4 = alloca i32, align 4
  store ptr %0, ptr %3, align 8
  store i32 %1, ptr %4, align 4
  %5 = load ptr, ptr %3, align 8
  %6 = getelementptr inbounds %class.GrowableArrayView, ptr %5, i32 0, i32 1
  %7 = load ptr, ptr %6, align 8
  %8 = load i32, ptr %4, align 4
  %9 = sext i32 %8 to i64
  %10 = getelementptr inbounds ptr, ptr %7, i64 %9
  ret ptr %10
}

; Function Attrs: mustprogress nounwind uwtable
define linkonce_odr hidden noundef i32 @_ZNK17GrowableArrayBase6lengthEv(ptr noundef nonnull align 4 dereferenceable(8) %0) #1 comdat align 2 {
  %2 = alloca ptr, align 8
  store ptr %0, ptr %2, align 8
  %3 = load ptr, ptr %2, align 8
  %4 = getelementptr inbounds %class.GrowableArrayBase, ptr %3, i32 0, i32 0
  %5 = load i32, ptr %4, align 4
  ret i32 %5
}

; Function Attrs: mustprogress nounwind uwtable
define linkonce_odr hidden noundef ptr @_ZNK14KlassInfoHisto8elementsEv(ptr noundef nonnull align 8 dereferenceable(16) %0) #1 comdat align 2 {
  %2 = alloca ptr, align 8
  store ptr %0, ptr %2, align 8
  %3 = load ptr, ptr %2, align 8
  %4 = getelementptr inbounds %class.KlassInfoHisto, ptr %3, i32 0, i32 1
  %5 = load ptr, ptr %4, align 8
  ret ptr %5
}

; Function Attrs: mustprogress nounwind uwtable
define hidden void @_ZNK14KlassInfoHisto14print_elementsEP12outputStream(ptr noundef nonnull align 8 dereferenceable(16) %0, ptr noundef %1) #1 align 2 {
  %3 = alloca ptr, align 8
  %4 = alloca ptr, align 8
  %5 = alloca i64, align 8
  %6 = alloca i64, align 8
  %7 = alloca i32, align 4
  store ptr %0, ptr %3, align 8
  store ptr %1, ptr %4, align 8
  %8 = load ptr, ptr %3, align 8
  store i64 0, ptr %5, align 8
  store i64 0, ptr %6, align 8
  store i32 0, ptr %7, align 4
  br label %9

9:                                                ; preds = %37, %2
  %10 = load i32, ptr %7, align 4
  %11 = call noundef ptr @_ZNK14KlassInfoHisto8elementsEv(ptr noundef nonnull align 8 dereferenceable(16) %8)
  %12 = call noundef i32 @_ZNK17GrowableArrayBase6lengthEv(ptr noundef nonnull align 4 dereferenceable(8) %11)
  %13 = icmp slt i32 %10, %12
  br i1 %13, label %14, label %40

14:                                               ; preds = %9
  %15 = load ptr, ptr %4, align 8
  %16 = load i32, ptr %7, align 4
  %17 = add nsw i32 %16, 1
  call void (ptr, ptr, ...) @_ZN12outputStream5printEPKcz(ptr noundef nonnull align 8 dereferenceable(56) %15, ptr noundef @.str.16, i32 noundef %17)
  %18 = call noundef ptr @_ZNK14KlassInfoHisto8elementsEv(ptr noundef nonnull align 8 dereferenceable(16) %8)
  %19 = load i32, ptr %7, align 4
  %20 = call noundef nonnull align 8 dereferenceable(8) ptr @_ZN17GrowableArrayViewIP14KlassInfoEntryE2atEi(ptr noundef nonnull align 8 dereferenceable(16) %18, i32 noundef %19)
  %21 = load ptr, ptr %20, align 8
  %22 = load ptr, ptr %4, align 8
  call void @_ZNK14KlassInfoEntry8print_onEP12outputStream(ptr noundef nonnull align 8 dereferenceable(56) %21, ptr noundef %22)
  %23 = call noundef ptr @_ZNK14KlassInfoHisto8elementsEv(ptr noundef nonnull align 8 dereferenceable(16) %8)
  %24 = load i32, ptr %7, align 4
  %25 = call noundef nonnull align 8 dereferenceable(8) ptr @_ZN17GrowableArrayViewIP14KlassInfoEntryE2atEi(ptr noundef nonnull align 8 dereferenceable(16) %23, i32 noundef %24)
  %26 = load ptr, ptr %25, align 8
  %27 = call noundef i64 @_ZNK14KlassInfoEntry5countEv(ptr noundef nonnull align 8 dereferenceable(56) %26)
  %28 = load i64, ptr %5, align 8
  %29 = add i64 %28, %27
  store i64 %29, ptr %5, align 8
  %30 = call noundef ptr @_ZNK14KlassInfoHisto8elementsEv(ptr noundef nonnull align 8 dereferenceable(16) %8)
  %31 = load i32, ptr %7, align 4
  %32 = call noundef nonnull align 8 dereferenceable(8) ptr @_ZN17GrowableArrayViewIP14KlassInfoEntryE2atEi(ptr noundef nonnull align 8 dereferenceable(16) %30, i32 noundef %31)
  %33 = load ptr, ptr %32, align 8
  %34 = call noundef i64 @_ZNK14KlassInfoEntry5wordsEv(ptr noundef nonnull align 8 dereferenceable(56) %33)
  %35 = load i64, ptr %6, align 8
  %36 = add i64 %35, %34
  store i64 %36, ptr %6, align 8
  br label %37

37:                                               ; preds = %14
  %38 = load i32, ptr %7, align 4
  %39 = add nsw i32 %38, 1
  store i32 %39, ptr %7, align 4
  br label %9, !llvm.loop !13

40:                                               ; preds = %9
  %41 = load ptr, ptr %4, align 8
  %42 = load i64, ptr %5, align 8
  %43 = load i64, ptr %6, align 8
  %44 = mul i64 %43, 8
  call void (ptr, ptr, ...) @_ZN12outputStream8print_crEPKcz(ptr noundef nonnull align 8 dereferenceable(56) %41, ptr noundef @.str.17, i64 noundef %42, i64 noundef %44)
  ret void
}

; Function Attrs: mustprogress nounwind uwtable
define hidden void @_ZN14KlassInfoHisto14print_histo_onEP12outputStream(ptr noundef nonnull align 8 dereferenceable(16) %0, ptr noundef %1) #1 align 2 {
  %3 = alloca ptr, align 8
  %4 = alloca ptr, align 8
  store ptr %0, ptr %3, align 8
  store ptr %1, ptr %4, align 8
  %5 = load ptr, ptr %3, align 8
  %6 = load ptr, ptr %4, align 8
  call void (ptr, ptr, ...) @_ZN12outputStream8print_crEPKcz(ptr noundef nonnull align 8 dereferenceable(56) %6, ptr noundef @.str.24)
  %7 = load ptr, ptr %4, align 8
  call void (ptr, ptr, ...) @_ZN12outputStream8print_crEPKcz(ptr noundef nonnull align 8 dereferenceable(56) %7, ptr noundef @.str.25)
  %8 = load ptr, ptr %4, align 8
  call void @_ZNK14KlassInfoHisto14print_elementsEP12outputStream(ptr noundef nonnull align 8 dereferenceable(16) %5, ptr noundef %8)
  ret void
}