; Function Attrs: mustprogress nounwind uwtable
define hidden void @_ZN14KlassInfoHisto14print_histo_onEP12outputStream(ptr nocapture noundef nonnull readonly align 8 dereferenceable(16) %0, ptr noundef nonnull %1) local_unnamed_addr #0 align 2 {
  tail call void (ptr, ptr, ...) @_ZN12outputStream8print_crEPKcz(ptr noundef nonnull align 8 dereferenceable(56) %1, ptr noundef nonnull @.str.24) #15
  tail call void (ptr, ptr, ...) @_ZN12outputStream8print_crEPKcz(ptr noundef nonnull align 8 dereferenceable(56) %1, ptr noundef nonnull @.str.25) #15
  %3 = getelementptr inbounds i8, ptr %0, i64 8
  %4 = load ptr, ptr %3, align 8
  %5 = load i32, ptr %4, align 4
  %6 = icmp sgt i32 %5, 0
  br i1 %6, label %.lr.ph.i, label %_ZNK14KlassInfoHisto14print_elementsEP12outputStream.exit

.lr.ph.i:                                         ; preds = %2, %.lr.ph.i
  %indvars.iv.i = phi i64 [ %indvars.iv.next.i, %.lr.ph.i ], [ 0, %2 ]
  %.01316.i = phi i64 [ %23, %.lr.ph.i ], [ 0, %2 ]
  %.01415.i = phi i64 [ %20, %.lr.ph.i ], [ 0, %2 ]
  %indvars.iv.next.i = add nuw nsw i64 %indvars.iv.i, 1
  %7 = trunc nuw nsw i64 %indvars.iv.next.i to i32
  tail call void (ptr, ptr, ...) @_ZN12outputStream5printEPKcz(ptr noundef nonnull align 8 dereferenceable(56) %1, ptr noundef nonnull @.str.16, i32 noundef %7) #15
  %8 = load ptr, ptr %3, align 8
  %9 = getelementptr inbounds i8, ptr %8, i64 8
  %10 = load ptr, ptr %9, align 8
  %11 = getelementptr inbounds ptr, ptr %10, i64 %indvars.iv.i
  %12 = load ptr, ptr %11, align 8
  tail call void @_ZNK14KlassInfoEntry8print_onEP12outputStream(ptr noundef nonnull align 8 dereferenceable(56) %12, ptr noundef nonnull %1)
  %13 = load ptr, ptr %3, align 8
  %14 = getelementptr inbounds i8, ptr %13, i64 8
  %15 = load ptr, ptr %14, align 8
  %16 = getelementptr inbounds ptr, ptr %15, i64 %indvars.iv.i
  %17 = load ptr, ptr %16, align 8
  %18 = getelementptr inbounds i8, ptr %17, i64 16
  %19 = load i64, ptr %18, align 8
  %20 = add i64 %19, %.01415.i
  %21 = getelementptr inbounds i8, ptr %17, i64 24
  %22 = load i64, ptr %21, align 8
  %23 = add i64 %22, %.01316.i
  %24 = load i32, ptr %13, align 4
  %25 = sext i32 %24 to i64
  %26 = icmp slt i64 %indvars.iv.next.i, %25
  br i1 %26, label %.lr.ph.i, label %._crit_edge.loopexit.i, !llvm.loop !13

._crit_edge.loopexit.i:                           ; preds = %.lr.ph.i
  %27 = shl i64 %23, 3
  br label %_ZNK14KlassInfoHisto14print_elementsEP12outputStream.exit

_ZNK14KlassInfoHisto14print_elementsEP12outputStream.exit: ; preds = %2, %._crit_edge.loopexit.i
  %.014.lcssa.i = phi i64 [ 0, %2 ], [ %20, %._crit_edge.loopexit.i ]
  %.013.lcssa.i = phi i64 [ 0, %2 ], [ %27, %._crit_edge.loopexit.i ]
  tail call void (ptr, ptr, ...) @_ZN12outputStream8print_crEPKcz(ptr noundef nonnull align 8 dereferenceable(56) %1, ptr noundef nonnull @.str.17, i64 noundef %.014.lcssa.i, i64 noundef %.013.lcssa.i) #15
  ret void
}